; Function Attrs: mustprogress nofree norecurse nosync nounwind memory(readwrite, inaccessiblemem: none) uwtable
define internal fastcc void @_ZN4heapIN12_GLOBAL__N_119theory_aware_act_ltEE9increasedEi(ptr nocapture noundef nonnull readonly align 8 dereferenceable(32) %this, i32 noundef %val) unnamed_addr #4 align 2 {
entry:
  %m_value2indices = getelementptr inbounds i8, ptr %this, i64 24
  %0 = load ptr, ptr %m_value2indices, align 8
  %idxprom.i = zext i32 %val to i64
  %arrayidx.i = getelementptr inbounds i32, ptr %0, i64 %idxprom.i
  %1 = load i32, ptr %arrayidx.i, align 4
  %m_values.i = getelementptr inbounds i8, ptr %this, i64 16
  %2 = load ptr, ptr %m_values.i, align 8
  %idxprom.i.i = zext i32 %1 to i64
  %arrayidx.i.i = getelementptr inbounds i32, ptr %2, i64 %idxprom.i.i
  %3 = load i32, ptr %arrayidx.i.i, align 4
  %arrayidx.i22.i = getelementptr inbounds i8, ptr %2, i64 -4
  %4 = load i32, ptr %arrayidx.i22.i, align 4
  %shl.i38.i = shl i32 %1, 1
  %cmp.not39.i = icmp slt i32 %shl.i38.i, %4
  br i1 %cmp.not39.i, label %if.end.lr.ph.i, label %_ZN4heapIN12_GLOBAL__N_119theory_aware_act_ltEE9move_downEi.exit

if.end.lr.ph.i:                                   ; preds = %entry
  %5 = getelementptr inbounds i8, ptr %this, i64 8
  br label %if.end.i

if.end.i:                                         ; preds = %if.end16.i, %if.end.lr.ph.i
  %shl.i41.i = phi i32 [ %shl.i38.i, %if.end.lr.ph.i ], [ %shl.i.i, %if.end16.i ]
  %idx.addr.040.i = phi i32 [ %1, %if.end.lr.ph.i ], [ %cond.i, %if.end16.i ]
  %add.i.i = or disjoint i32 %shl.i41.i, 1
  %cmp6.i = icmp slt i32 %add.i.i, %4
  %.pre.pre.i = load ptr, ptr %m_values.i, align 8
  br i1 %cmp6.i, label %land.lhs.true.i, label %if.end.cond.false_crit_edge.i

if.end.cond.false_crit_edge.i:                    ; preds = %if.end.i
  %.pre43.phi.trans.insert.i = zext i32 %shl.i41.i to i64
  %arrayidx.i29.phi.trans.insert.phi.trans.insert.i = getelementptr inbounds i32, ptr %.pre.pre.i, i64 %.pre43.phi.trans.insert.i
  %.pre44.pre.i = load i32, ptr %arrayidx.i29.phi.trans.insert.phi.trans.insert.i, align 4
  %this.val.pre.pre.i = load ptr, ptr %this, align 8
  %this.val17.pre.pre.i = load ptr, ptr %5, align 8
  %this.val17.val.pre.pre.i = load ptr, ptr %this.val17.pre.pre.i, align 8
  %.phi.trans.insert.phi.trans.insert.i = getelementptr i8, ptr %this.val17.pre.pre.i, i64 8
  %this.val17.val21.pre.pre.i = load i32, ptr %.phi.trans.insert.phi.trans.insert.i, align 8
  br label %cond.end.i

land.lhs.true.i:                                  ; preds = %if.end.i
  %idxprom.i24.i = zext i32 %add.i.i to i64
  %arrayidx.i25.i = getelementptr inbounds i32, ptr %.pre.pre.i, i64 %idxprom.i24.i
  %6 = load i32, ptr %arrayidx.i25.i, align 4
  %idxprom.i26.i = zext i32 %shl.i41.i to i64
  %arrayidx.i27.i = getelementptr inbounds i32, ptr %.pre.pre.i, i64 %idxprom.i26.i
  %7 = load i32, ptr %arrayidx.i27.i, align 4
  %this.val18.i = load ptr, ptr %this, align 8
  %this.val19.i = load ptr, ptr %5, align 8
  %this.val19.val.i = load ptr, ptr %this.val19.i, align 8
  %8 = getelementptr i8, ptr %this.val19.i, i64 8
  %this.val19.val20.i = load i32, ptr %8, align 8
  %call11.i = tail call fastcc noundef zeroext i1 @_ZNK4heapIN12_GLOBAL__N_119theory_aware_act_ltEE9less_thanEii(ptr %this.val18.i, ptr %this.val19.val.i, i32 %this.val19.val20.i, i32 noundef %6, i32 noundef %7)
  %spec.select.i = select i1 %call11.i, i32 %6, i32 %7
  %spec.select59.i = select i1 %call11.i, i32 %add.i.i, i32 %shl.i41.i
  br label %cond.end.i

cond.end.i:                                       ; preds = %land.lhs.true.i, %if.end.cond.false_crit_edge.i
  %this.val17.val21.i = phi i32 [ %this.val17.val21.pre.pre.i, %if.end.cond.false_crit_edge.i ], [ %this.val19.val20.i, %land.lhs.true.i ]
  %this.val17.val.i = phi ptr [ %this.val17.val.pre.pre.i, %if.end.cond.false_crit_edge.i ], [ %this.val19.val.i, %land.lhs.true.i ]
  %this.val.i = phi ptr [ %this.val.pre.pre.i, %if.end.cond.false_crit_edge.i ], [ %this.val18.i, %land.lhs.true.i ]
  %9 = phi i32 [ %.pre44.pre.i, %if.end.cond.false_crit_edge.i ], [ %spec.select.i, %land.lhs.true.i ]
  %cond.i = phi i32 [ %shl.i41.i, %if.end.cond.false_crit_edge.i ], [ %spec.select59.i, %land.lhs.true.i ]
  %call14.i = tail call fastcc noundef zeroext i1 @_ZNK4heapIN12_GLOBAL__N_119theory_aware_act_ltEE9less_thanEii(ptr %this.val.i, ptr %this.val17.val.i, i32 %this.val17.val21.i, i32 noundef %9, i32 noundef %3)
  br i1 %call14.i, label %if.end16.i, label %while.end.loopexit.i

if.end16.i:                                       ; preds = %cond.end.i
  %idxprom.i30.i = zext i32 %idx.addr.040.i to i64
  %arrayidx.i31.i = getelementptr inbounds i32, ptr %.pre.pre.i, i64 %idxprom.i30.i
  store i32 %9, ptr %arrayidx.i31.i, align 4
  %10 = load ptr, ptr %m_value2indices, align 8
  %idxprom.i32.i = zext i32 %9 to i64
  %arrayidx.i33.i = getelementptr inbounds i32, ptr %10, i64 %idxprom.i32.i
  store i32 %idx.addr.040.i, ptr %arrayidx.i33.i, align 4
  %shl.i.i = shl i32 %cond.i, 1
  %cmp.not.i = icmp slt i32 %shl.i.i, %4
  br i1 %cmp.not.i, label %if.end.i, label %if.end16.while.end.loopexit_crit_edge.i, !llvm.loop !40

if.end16.while.end.loopexit_crit_edge.i:          ; preds = %if.end16.i
  %.pre49.pre.i = load ptr, ptr %m_values.i, align 8
  br label %while.end.loopexit.i

while.end.loopexit.i:                             ; preds = %cond.end.i, %if.end16.while.end.loopexit_crit_edge.i
  %.pre49.i = phi ptr [ %.pre49.pre.i, %if.end16.while.end.loopexit_crit_edge.i ], [ %.pre.pre.i, %cond.end.i ]
  %idx.addr.0.lcssa.ph.i = phi i32 [ %cond.i, %if.end16.while.end.loopexit_crit_edge.i ], [ %idx.addr.040.i, %cond.end.i ]
  %.pre.i = zext i32 %idx.addr.0.lcssa.ph.i to i64
  br label %_ZN4heapIN12_GLOBAL__N_119theory_aware_act_ltEE9move_downEi.exit

_ZN4heapIN12_GLOBAL__N_119theory_aware_act_ltEE9move_downEi.exit: ; preds = %entry, %while.end.loopexit.i
  %idxprom.i34.pre-phi.i = phi i64 [ %.pre.i, %while.end.loopexit.i ], [ %idxprom.i.i, %entry ]
  %11 = phi ptr [ %.pre49.i, %while.end.loopexit.i ], [ %2, %entry ]
  %idx.addr.0.lcssa.i = phi i32 [ %idx.addr.0.lcssa.ph.i, %while.end.loopexit.i ], [ %1, %entry ]
  %arrayidx.i35.i = getelementptr inbounds i32, ptr %11, i64 %idxprom.i34.pre-phi.i
  store i32 %3, ptr %arrayidx.i35.i, align 4
  %12 = load ptr, ptr %m_value2indices, align 8
  %idxprom.i36.i = zext i32 %3 to i64
  %arrayidx.i37.i = getelementptr inbounds i32, ptr %12, i64 %idxprom.i36.i
  store i32 %idx.addr.0.lcssa.i, ptr %arrayidx.i37.i, align 4
  ret void
}